target datalayout = "e-m:e-p270:32:32-p271:32:32-p272:64:64-i64:64-i128:128-f80:128-n8:16:32:64-S128"
target triple = "x86_64-pc-linux-gnu"

; Function Attrs: nounwind uwtable
define internal void @SHADecode32(ptr noundef %0, ptr noundef %1, i32 noundef %2) #1 {
  %4 = alloca ptr, align 8
  %5 = alloca ptr, align 8
  %6 = alloca i32, align 4
  %7 = alloca i32, align 4
  %8 = alloca i32, align 4
  store ptr %0, ptr %4, align 8
  store ptr %1, ptr %5, align 8
  store i32 %2, ptr %6, align 4
  store i32 0, ptr %7, align 4
  store i32 0, ptr %8, align 4
  br label %9

9:                                                ; preds = %51, %3
  %10 = load i32, ptr %8, align 4
  %11 = load i32, ptr %6, align 4
  %12 = icmp ult i32 %10, %11
  br i1 %12, label %13, label %56

13:                                               ; preds = %9
  %14 = load ptr, ptr %5, align 8
  %15 = load i32, ptr %8, align 4
  %16 = add i32 %15, 3
  %17 = zext i32 %16 to i64
  %18 = getelementptr inbounds i8, ptr %14, i64 %17
  %19 = load i8, ptr %18, align 1
  %20 = zext i8 %19 to i32
  %21 = load ptr, ptr %5, align 8
  %22 = load i32, ptr %8, align 4
  %23 = add i32 %22, 2
  %24 = zext i32 %23 to i64
  %25 = getelementptr inbounds i8, ptr %21, i64 %24
  %26 = load i8, ptr %25, align 1
  %27 = zext i8 %26 to i32
  %28 = shl i32 %27, 8
  %29 = or i32 %20, %28
  %30 = load ptr, ptr %5, align 8
  %31 = load i32, ptr %8, align 4
  %32 = add i32 %31, 1
  %33 = zext i32 %32 to i64
  %34 = getelementptr inbounds i8, ptr %30, i64 %33
  %35 = load i8, ptr %34, align 1
  %36 = zext i8 %35 to i32
  %37 = shl i32 %36, 16
  %38 = or i32 %29, %37
  %39 = load ptr, ptr %5, align 8
  %40 = load i32, ptr %8, align 4
  %41 = zext i32 %40 to i64
  %42 = getelementptr inbounds i8, ptr %39, i64 %41
  %43 = load i8, ptr %42, align 1
  %44 = zext i8 %43 to i32
  %45 = shl i32 %44, 24
  %46 = or i32 %38, %45
  %47 = load ptr, ptr %4, align 8
  %48 = load i32, ptr %7, align 4
  %49 = zext i32 %48 to i64
  %50 = getelementptr inbounds i32, ptr %47, i64 %49
  store i32 %46, ptr %50, align 4
  br label %51

51:                                               ; preds = %13
  %52 = load i32, ptr %7, align 4
  %53 = add i32 %52, 1
  store i32 %53, ptr %7, align 4
  %54 = load i32, ptr %8, align 4
  %55 = add i32 %54, 4
  store i32 %55, ptr %8, align 4
  br label %9

56:                                               ; preds = %9
  ret void
}

; Function Attrs: nounwind uwtable
define internal void @SHA256Transform(ptr noundef %0, ptr noundef %1) #1 {
  %3 = alloca ptr, align 8
  %4 = alloca ptr, align 8
  %5 = alloca i32, align 4
  %6 = alloca i32, align 4
  %7 = alloca i32, align 4
  %8 = alloca i32, align 4
  %9 = alloca i32, align 4
  %10 = alloca i32, align 4
  %11 = alloca i32, align 4
  %12 = alloca i32, align 4
  %13 = alloca [16 x i32], align 16
  %14 = alloca i32, align 4
  %15 = alloca i32, align 4
  %16 = alloca [64 x i32], align 16
  %17 = alloca i32, align 4
  store ptr %0, ptr %3, align 8
  store ptr %1, ptr %4, align 8
  %18 = load ptr, ptr %3, align 8
  %19 = getelementptr inbounds i32, ptr %18, i64 0
  %20 = load i32, ptr %19, align 4
  store i32 %20, ptr %5, align 4
  %21 = load ptr, ptr %3, align 8
  %22 = getelementptr inbounds i32, ptr %21, i64 1
  %23 = load i32, ptr %22, align 4
  store i32 %23, ptr %6, align 4
  %24 = load ptr, ptr %3, align 8
  %25 = getelementptr inbounds i32, ptr %24, i64 2
  %26 = load i32, ptr %25, align 4
  store i32 %26, ptr %7, align 4
  %27 = load ptr, ptr %3, align 8
  %28 = getelementptr inbounds i32, ptr %27, i64 3
  %29 = load i32, ptr %28, align 4
  store i32 %29, ptr %8, align 4
  %30 = load ptr, ptr %3, align 8
  %31 = getelementptr inbounds i32, ptr %30, i64 4
  %32 = load i32, ptr %31, align 4
  store i32 %32, ptr %9, align 4
  %33 = load ptr, ptr %3, align 8
  %34 = getelementptr inbounds i32, ptr %33, i64 5
  %35 = load i32, ptr %34, align 4
  store i32 %35, ptr %10, align 4
  %36 = load ptr, ptr %3, align 8
  %37 = getelementptr inbounds i32, ptr %36, i64 6
  %38 = load i32, ptr %37, align 4
  store i32 %38, ptr %11, align 4
  %39 = load ptr, ptr %3, align 8
  %40 = getelementptr inbounds i32, ptr %39, i64 7
  %41 = load i32, ptr %40, align 4
  store i32 %41, ptr %12, align 4
  %42 = getelementptr inbounds [16 x i32], ptr %13, i64 0, i64 0
  %43 = load ptr, ptr %4, align 8
  call void @SHADecode32(ptr noundef %42, ptr noundef %43, i32 noundef 64)
  store i32 0, ptr %17, align 4
  br label %44

44:                                               ; preds = %55, %2
  %45 = load i32, ptr %17, align 4
  %46 = icmp slt i32 %45, 16
  br i1 %46, label %47, label %58

47:                                               ; preds = %44
  %48 = load i32, ptr %17, align 4
  %49 = sext i32 %48 to i64
  %50 = getelementptr inbounds [16 x i32], ptr %13, i64 0, i64 %49
  %51 = load i32, ptr %50, align 4
  %52 = load i32, ptr %17, align 4
  %53 = sext i32 %52 to i64
  %54 = getelementptr inbounds [64 x i32], ptr %16, i64 0, i64 %53
  store i32 %51, ptr %54, align 4
  br label %55

55:                                               ; preds = %47
  %56 = load i32, ptr %17, align 4
  %57 = add nsw i32 %56, 1
  store i32 %57, ptr %17, align 4
  br label %44

58:                                               ; preds = %44
  store i32 16, ptr %17, align 4
  br label %59

59:                                               ; preds = %147, %58
  %60 = load i32, ptr %17, align 4
  %61 = icmp slt i32 %60, 64
  br i1 %61, label %62, label %150

62:                                               ; preds = %59
  %63 = load i32, ptr %17, align 4
  %64 = sub nsw i32 %63, 2
  %65 = sext i32 %64 to i64
  %66 = getelementptr inbounds [64 x i32], ptr %16, i64 0, i64 %65
  %67 = load i32, ptr %66, align 4
  %68 = lshr i32 %67, 17
  %69 = load i32, ptr %17, align 4
  %70 = sub nsw i32 %69, 2
  %71 = sext i32 %70 to i64
  %72 = getelementptr inbounds [64 x i32], ptr %16, i64 0, i64 %71
  %73 = load i32, ptr %72, align 4
  %74 = shl i32 %73, 15
  %75 = or i32 %68, %74
  %76 = load i32, ptr %17, align 4
  %77 = sub nsw i32 %76, 2
  %78 = sext i32 %77 to i64
  %79 = getelementptr inbounds [64 x i32], ptr %16, i64 0, i64 %78
  %80 = load i32, ptr %79, align 4
  %81 = lshr i32 %80, 19
  %82 = load i32, ptr %17, align 4
  %83 = sub nsw i32 %82, 2
  %84 = sext i32 %83 to i64
  %85 = getelementptr inbounds [64 x i32], ptr %16, i64 0, i64 %84
  %86 = load i32, ptr %85, align 4
  %87 = shl i32 %86, 13
  %88 = or i32 %81, %87
  %89 = xor i32 %75, %88
  %90 = load i32, ptr %17, align 4
  %91 = sub nsw i32 %90, 2
  %92 = sext i32 %91 to i64
  %93 = getelementptr inbounds [64 x i32], ptr %16, i64 0, i64 %92
  %94 = load i32, ptr %93, align 4
  %95 = lshr i32 %94, 10
  %96 = xor i32 %89, %95
  %97 = load i32, ptr %17, align 4
  %98 = sub nsw i32 %97, 7
  %99 = sext i32 %98 to i64
  %100 = getelementptr inbounds [64 x i32], ptr %16, i64 0, i64 %99
  %101 = load i32, ptr %100, align 4
  %102 = add i32 %96, %101
  %103 = load i32, ptr %17, align 4
  %104 = sub nsw i32 %103, 15
  %105 = sext i32 %104 to i64
  %106 = getelementptr inbounds [64 x i32], ptr %16, i64 0, i64 %105
  %107 = load i32, ptr %106, align 4
  %108 = lshr i32 %107, 7
  %109 = load i32, ptr %17, align 4
  %110 = sub nsw i32 %109, 15
  %111 = sext i32 %110 to i64
  %112 = getelementptr inbounds [64 x i32], ptr %16, i64 0, i64 %111
  %113 = load i32, ptr %112, align 4
  %114 = shl i32 %113, 25
  %115 = or i32 %108, %114
  %116 = load i32, ptr %17, align 4
  %117 = sub nsw i32 %116, 15
  %118 = sext i32 %117 to i64
  %119 = getelementptr inbounds [64 x i32], ptr %16, i64 0, i64 %118
  %120 = load i32, ptr %119, align 4
  %121 = lshr i32 %120, 18
  %122 = load i32, ptr %17, align 4
  %123 = sub nsw i32 %122, 15
  %124 = sext i32 %123 to i64
  %125 = getelementptr inbounds [64 x i32], ptr %16, i64 0, i64 %124
  %126 = load i32, ptr %125, align 4
  %127 = shl i32 %126, 14
  %128 = or i32 %121, %127
  %129 = xor i32 %115, %128
  %130 = load i32, ptr %17, align 4
  %131 = sub nsw i32 %130, 15
  %132 = sext i32 %131 to i64
  %133 = getelementptr inbounds [64 x i32], ptr %16, i64 0, i64 %132
  %134 = load i32, ptr %133, align 4
  %135 = lshr i32 %134, 3
  %136 = xor i32 %129, %135
  %137 = add i32 %102, %136
  %138 = load i32, ptr %17, align 4
  %139 = sub nsw i32 %138, 16
  %140 = sext i32 %139 to i64
  %141 = getelementptr inbounds [64 x i32], ptr %16, i64 0, i64 %140
  %142 = load i32, ptr %141, align 4
  %143 = add i32 %137, %142
  %144 = load i32, ptr %17, align 4
  %145 = sext i32 %144 to i64
  %146 = getelementptr inbounds [64 x i32], ptr %16, i64 0, i64 %145
  store i32 %143, ptr %146, align 4
  br label %147

147:                                              ; preds = %62
  %148 = load i32, ptr %17, align 4
  %149 = add nsw i32 %148, 1
  store i32 %149, ptr %17, align 4
  br label %59

150:                                              ; preds = %59
  store i32 0, ptr %17, align 4
  br label %151

151:                                              ; preds = %234, %150
  %152 = load i32, ptr %17, align 4
  %153 = icmp slt i32 %152, 64
  br i1 %153, label %154, label %237

154:                                              ; preds = %151
  %155 = load i32, ptr %12, align 4
  %156 = load i32, ptr %9, align 4
  %157 = lshr i32 %156, 6
  %158 = load i32, ptr %9, align 4
  %159 = shl i32 %158, 26
  %160 = or i32 %157, %159
  %161 = load i32, ptr %9, align 4
  %162 = lshr i32 %161, 11
  %163 = load i32, ptr %9, align 4
  %164 = shl i32 %163, 21
  %165 = or i32 %162, %164
  %166 = xor i32 %160, %165
  %167 = load i32, ptr %9, align 4
  %168 = lshr i32 %167, 25
  %169 = load i32, ptr %9, align 4
  %170 = shl i32 %169, 7
  %171 = or i32 %168, %170
  %172 = xor i32 %166, %171
  %173 = add i32 %155, %172
  %174 = load i32, ptr %9, align 4
  %175 = load i32, ptr %10, align 4
  %176 = and i32 %174, %175
  %177 = load i32, ptr %9, align 4
  %178 = xor i32 %177, -1
  %179 = load i32, ptr %11, align 4
  %180 = and i32 %178, %179
  %181 = xor i32 %176, %180
  %182 = add i32 %173, %181
  %183 = load i32, ptr %17, align 4
  %184 = sext i32 %183 to i64
  %185 = getelementptr inbounds [64 x i32], ptr @SHA256_K, i64 0, i64 %184
  %186 = load i32, ptr %185, align 4
  %187 = add i32 %182, %186
  %188 = load i32, ptr %17, align 4
  %189 = sext i32 %188 to i64
  %190 = getelementptr inbounds [64 x i32], ptr %16, i64 0, i64 %189
  %191 = load i32, ptr %190, align 4
  %192 = add i32 %187, %191
  store i32 %192, ptr %14, align 4
  %193 = load i32, ptr %5, align 4
  %194 = lshr i32 %193, 2
  %195 = load i32, ptr %5, align 4
  %196 = shl i32 %195, 30
  %197 = or i32 %194, %196
  %198 = load i32, ptr %5, align 4
  %199 = lshr i32 %198, 13
  %200 = load i32, ptr %5, align 4
  %201 = shl i32 %200, 19
  %202 = or i32 %199, %201
  %203 = xor i32 %197, %202
  %204 = load i32, ptr %5, align 4
  %205 = lshr i32 %204, 22
  %206 = load i32, ptr %5, align 4
  %207 = shl i32 %206, 10
  %208 = or i32 %205, %207
  %209 = xor i32 %203, %208
  %210 = load i32, ptr %5, align 4
  %211 = load i32, ptr %6, align 4
  %212 = and i32 %210, %211
  %213 = load i32, ptr %5, align 4
  %214 = load i32, ptr %7, align 4
  %215 = and i32 %213, %214
  %216 = xor i32 %212, %215
  %217 = load i32, ptr %6, align 4
  %218 = load i32, ptr %7, align 4
  %219 = and i32 %217, %218
  %220 = xor i32 %216, %219
  %221 = add i32 %209, %220
  store i32 %221, ptr %15, align 4
  %222 = load i32, ptr %11, align 4
  store i32 %222, ptr %12, align 4
  %223 = load i32, ptr %10, align 4
  store i32 %223, ptr %11, align 4
  %224 = load i32, ptr %9, align 4
  store i32 %224, ptr %10, align 4
  %225 = load i32, ptr %8, align 4
  %226 = load i32, ptr %14, align 4
  %227 = add i32 %225, %226
  store i32 %227, ptr %9, align 4
  %228 = load i32, ptr %7, align 4
  store i32 %228, ptr %8, align 4
  %229 = load i32, ptr %6, align 4
  store i32 %229, ptr %7, align 4
  %230 = load i32, ptr %5, align 4
  store i32 %230, ptr %6, align 4
  %231 = load i32, ptr %14, align 4
  %232 = load i32, ptr %15, align 4
  %233 = add i32 %231, %232
  store i32 %233, ptr %5, align 4
  br label %234

234:                                              ; preds = %154
  %235 = load i32, ptr %17, align 4
  %236 = add nsw i32 %235, 1
  store i32 %236, ptr %17, align 4
  br label %151

237:                                              ; preds = %151
  %238 = load i32, ptr %5, align 4
  %239 = load ptr, ptr %3, align 8
  %240 = getelementptr inbounds i32, ptr %239, i64 0
  %241 = load i32, ptr %240, align 4
  %242 = add i32 %241, %238
  store i32 %242, ptr %240, align 4
  %243 = load i32, ptr %6, align 4
  %244 = load ptr, ptr %3, align 8
  %245 = getelementptr inbounds i32, ptr %244, i64 1
  %246 = load i32, ptr %245, align 4
  %247 = add i32 %246, %243
  store i32 %247, ptr %245, align 4
  %248 = load i32, ptr %7, align 4
  %249 = load ptr, ptr %3, align 8
  %250 = getelementptr inbounds i32, ptr %249, i64 2
  %251 = load i32, ptr %250, align 4
  %252 = add i32 %251, %248
  store i32 %252, ptr %250, align 4
  %253 = load i32, ptr %8, align 4
  %254 = load ptr, ptr %3, align 8
  %255 = getelementptr inbounds i32, ptr %254, i64 3
  %256 = load i32, ptr %255, align 4
  %257 = add i32 %256, %253
  store i32 %257, ptr %255, align 4
  %258 = load i32, ptr %9, align 4
  %259 = load ptr, ptr %3, align 8
  %260 = getelementptr inbounds i32, ptr %259, i64 4
  %261 = load i32, ptr %260, align 4
  %262 = add i32 %261, %258
  store i32 %262, ptr %260, align 4
  %263 = load i32, ptr %10, align 4
  %264 = load ptr, ptr %3, align 8
  %265 = getelementptr inbounds i32, ptr %264, i64 5
  %266 = load i32, ptr %265, align 4
  %267 = add i32 %266, %263
  store i32 %267, ptr %265, align 4
  %268 = load i32, ptr %11, align 4
  %269 = load ptr, ptr %3, align 8
  %270 = getelementptr inbounds i32, ptr %269, i64 6
  %271 = load i32, ptr %270, align 4
  %272 = add i32 %271, %268
  store i32 %272, ptr %270, align 4
  %273 = load i32, ptr %12, align 4
  %274 = load ptr, ptr %3, align 8
  %275 = getelementptr inbounds i32, ptr %274, i64 7
  %276 = load i32, ptr %275, align 4
  %277 = add i32 %276, %273
  store i32 %277, ptr %275, align 4
  %278 = getelementptr inbounds [16 x i32], ptr %13, i64 0, i64 0
  call void @explicit_bzero(ptr noundef %278, i64 noundef 64) #4
  ret void
}