; Function Attrs: nounwind uwtable
define internal fastcc void @SHA256Transform(ptr nocapture noundef %0, ptr nocapture noundef readonly %1) unnamed_addr #2 {
  %3 = alloca [16 x i32], align 16
  %4 = alloca [64 x i32], align 16
  %5 = load i32, ptr %0, align 4
  %6 = getelementptr inbounds i8, ptr %0, i64 4
  %7 = load i32, ptr %6, align 4
  %8 = getelementptr inbounds i8, ptr %0, i64 8
  %9 = load i32, ptr %8, align 4
  %10 = getelementptr inbounds i8, ptr %0, i64 12
  %11 = load i32, ptr %10, align 4
  %12 = getelementptr inbounds i8, ptr %0, i64 16
  %13 = load i32, ptr %12, align 4
  %14 = getelementptr inbounds i8, ptr %0, i64 20
  %15 = load i32, ptr %14, align 4
  %16 = getelementptr inbounds i8, ptr %0, i64 24
  %17 = load i32, ptr %16, align 4
  %18 = getelementptr inbounds i8, ptr %0, i64 28
  %19 = load i32, ptr %18, align 4
  br label %20

20:                                               ; preds = %20, %2
  %indvars.iv16.i = phi i64 [ 0, %2 ], [ %indvars.iv.next17.i, %20 ]
  %indvars.iv.i = phi i64 [ 0, %2 ], [ %indvars.iv.next.i, %20 ]
  %21 = or disjoint i64 %indvars.iv.i, 3
  %22 = getelementptr inbounds i8, ptr %1, i64 %21
  %23 = load i8, ptr %22, align 1
  %24 = zext i8 %23 to i32
  %25 = or disjoint i64 %indvars.iv.i, 2
  %26 = getelementptr inbounds i8, ptr %1, i64 %25
  %27 = load i8, ptr %26, align 1
  %28 = zext i8 %27 to i32
  %29 = shl nuw nsw i32 %28, 8
  %30 = or disjoint i32 %29, %24
  %31 = or disjoint i64 %indvars.iv.i, 1
  %32 = getelementptr inbounds i8, ptr %1, i64 %31
  %33 = load i8, ptr %32, align 1
  %34 = zext i8 %33 to i32
  %35 = shl nuw nsw i32 %34, 16
  %36 = or disjoint i32 %30, %35
  %37 = getelementptr inbounds i8, ptr %1, i64 %indvars.iv.i
  %38 = load i8, ptr %37, align 1
  %39 = zext i8 %38 to i32
  %40 = shl nuw i32 %39, 24
  %41 = or disjoint i32 %36, %40
  %42 = getelementptr inbounds i32, ptr %3, i64 %indvars.iv16.i
  store i32 %41, ptr %42, align 4
  %indvars.iv.next17.i = add nuw nsw i64 %indvars.iv16.i, 1
  %indvars.iv.next.i = add nuw nsw i64 %indvars.iv.i, 4
  %exitcond.not.i = icmp eq i64 %indvars.iv.next17.i, 16
  br i1 %exitcond.not.i, label %SHADecode32.exit.preheader, label %20

SHADecode32.exit.preheader:                       ; preds = %20
  call void @llvm.memcpy.p0.p0.i64(ptr noundef nonnull align 16 dereferenceable(64) %4, ptr noundef nonnull align 16 dereferenceable(64) %3, i64 64, i1 false)
  %.pre = load i32, ptr %4, align 16
  br label %.preheader88

.preheader88:                                     ; preds = %SHADecode32.exit.preheader, %.preheader88
  %43 = phi i32 [ %.pre, %SHADecode32.exit.preheader ], [ %58, %.preheader88 ]
  %indvars.iv = phi i64 [ 16, %SHADecode32.exit.preheader ], [ %indvars.iv.next, %.preheader88 ]
  %44 = add nsw i64 %indvars.iv, -2
  %45 = getelementptr inbounds [64 x i32], ptr %4, i64 0, i64 %44
  %46 = load i32, ptr %45, align 4
  %47 = tail call i32 @llvm.fshl.i32(i32 %46, i32 %46, i32 15)
  %48 = tail call i32 @llvm.fshl.i32(i32 %46, i32 %46, i32 13)
  %49 = xor i32 %47, %48
  %50 = lshr i32 %46, 10
  %51 = xor i32 %49, %50
  %52 = add nsw i64 %indvars.iv, -7
  %53 = getelementptr inbounds [64 x i32], ptr %4, i64 0, i64 %52
  %54 = load i32, ptr %53, align 4
  %55 = add i32 %51, %54
  %56 = add nsw i64 %indvars.iv, -15
  %57 = getelementptr inbounds [64 x i32], ptr %4, i64 0, i64 %56
  %58 = load i32, ptr %57, align 4
  %59 = tail call i32 @llvm.fshl.i32(i32 %58, i32 %58, i32 25)
  %60 = tail call i32 @llvm.fshl.i32(i32 %58, i32 %58, i32 14)
  %61 = xor i32 %59, %60
  %62 = lshr i32 %58, 3
  %63 = xor i32 %61, %62
  %64 = add i32 %55, %43
  %65 = add i32 %64, %63
  %66 = getelementptr inbounds [64 x i32], ptr %4, i64 0, i64 %indvars.iv
  store i32 %65, ptr %66, align 4
  %indvars.iv.next = add nuw nsw i64 %indvars.iv, 1
  %exitcond.not = icmp eq i64 %indvars.iv.next, 64
  br i1 %exitcond.not, label %.preheader, label %.preheader88

.preheader:                                       ; preds = %.preheader88, %.preheader
  %indvars.iv103 = phi i64 [ %indvars.iv.next104, %.preheader ], [ 0, %.preheader88 ]
  %.08098 = phi i32 [ %95, %.preheader ], [ %5, %.preheader88 ]
  %.08197 = phi i32 [ %.08098, %.preheader ], [ %7, %.preheader88 ]
  %.08296 = phi i32 [ %.08395, %.preheader ], [ %19, %.preheader88 ]
  %.08395 = phi i32 [ %.08494, %.preheader ], [ %17, %.preheader88 ]
  %.08494 = phi i32 [ %.08593, %.preheader ], [ %15, %.preheader88 ]
  %.08593 = phi i32 [ %94, %.preheader ], [ %13, %.preheader88 ]
  %.08692 = phi i32 [ %.08791, %.preheader ], [ %11, %.preheader88 ]
  %.08791 = phi i32 [ %.08197, %.preheader ], [ %9, %.preheader88 ]
  %67 = tail call i32 @llvm.fshl.i32(i32 %.08593, i32 %.08593, i32 26)
  %68 = tail call i32 @llvm.fshl.i32(i32 %.08593, i32 %.08593, i32 21)
  %69 = xor i32 %67, %68
  %70 = tail call i32 @llvm.fshl.i32(i32 %.08593, i32 %.08593, i32 7)
  %71 = xor i32 %69, %70
  %72 = and i32 %.08494, %.08593
  %73 = xor i32 %.08593, -1
  %74 = and i32 %.08395, %73
  %75 = getelementptr inbounds [64 x i32], ptr @SHA256_K, i64 0, i64 %indvars.iv103
  %76 = load i32, ptr %75, align 4
  %77 = getelementptr inbounds [64 x i32], ptr %4, i64 0, i64 %indvars.iv103
  %78 = load i32, ptr %77, align 4
  %79 = add i32 %71, %72
  %80 = add i32 %79, %.08296
  %81 = add i32 %80, %74
  %82 = add i32 %81, %76
  %83 = add i32 %82, %78
  %84 = tail call i32 @llvm.fshl.i32(i32 %.08098, i32 %.08098, i32 30)
  %85 = tail call i32 @llvm.fshl.i32(i32 %.08098, i32 %.08098, i32 19)
  %86 = xor i32 %84, %85
  %87 = tail call i32 @llvm.fshl.i32(i32 %.08098, i32 %.08098, i32 10)
  %88 = xor i32 %86, %87
  %89 = xor i32 %.08197, %.08791
  %90 = and i32 %.08098, %89
  %91 = and i32 %.08197, %.08791
  %92 = xor i32 %90, %91
  %93 = add i32 %88, %92
  %94 = add i32 %83, %.08692
  %95 = add i32 %93, %83
  %indvars.iv.next104 = add nuw nsw i64 %indvars.iv103, 1
  %exitcond106.not = icmp eq i64 %indvars.iv.next104, 64
  br i1 %exitcond106.not, label %96, label %.preheader

96:                                               ; preds = %.preheader
  %97 = add i32 %95, %5
  store i32 %97, ptr %0, align 4
  %98 = add i32 %.08098, %7
  store i32 %98, ptr %6, align 4
  %99 = add i32 %.08197, %9
  store i32 %99, ptr %8, align 4
  %100 = add i32 %.08791, %11
  store i32 %100, ptr %10, align 4
  %101 = add i32 %94, %13
  store i32 %101, ptr %12, align 4
  %102 = add i32 %.08593, %15
  store i32 %102, ptr %14, align 4
  %103 = add i32 %.08494, %17
  store i32 %103, ptr %16, align 4
  %104 = add i32 %.08395, %19
  store i32 %104, ptr %18, align 4
  call void @explicit_bzero(ptr noundef nonnull %3, i64 noundef 64) #7
  ret void
}